target datalayout = "e-m:e-p270:32:32-p271:32:32-p272:64:64-i64:64-i128:128-f80:128-n8:16:32:64-S128"
target triple = "x86_64-pc-linux-gnu"

%struct.CVodeMemRec = type { ptr, double, ptr, ptr, i32, i32, double, double, ptr, i32, i32, ptr, ptr, i32, i32, ptr, i32, i32, double, double, ptr, i32, i32, i32, i32, ptr, ptr, ptr, i32, i32, ptr, ptr, ptr, i32, double, i32, i32, double, ptr, ptr, ptr, i32, ptr, ptr, i32, i32, i32, double, ptr, ptr, ptr, [13 x ptr], ptr, ptr, ptr, ptr, ptr, ptr, ptr, ptr, ptr, [13 x ptr], ptr, ptr, ptr, ptr, [13 x ptr], ptr, ptr, ptr, ptr, ptr, i32, [13 x ptr], ptr, ptr, ptr, ptr, ptr, i32, i32, double, i32, i32, i32, i32, i32, double, double, double, double, double, double, double, double, [14 x double], [6 x double], [13 x double], double, double, double, double, double, double, double, double, i32, double, double, i32, double, double, ptr, i32, i64, i32, i32, i32, double, double, double, double, double, double, double, double, double, double, double, double, i64, i32, i64, i64, i64, i64, i64, i64, i64, i64, i64, ptr, i64, i64, ptr, i64, i64, ptr, i64, i64, i64, i64, i64, i64, i32, double, double, double, i64, i64, i64, i64, i64, i64, ptr, i32, ptr, i32, ptr, i32, ptr, i32, i32, i64, i32, ptr, i32, ptr, ptr, ptr, ptr, ptr, ptr, i32, i32, ptr, ptr, ptr, ptr, ptr, i64, double, i32, i32, i64, double, double, double, i32, i32, double, i32, i32, i32, i32, i32, i32, i32, i32, i32, i32, i32, i32, i32, i32, i32, i32, ptr, i64, i32, [6 x [4 x double]], i32, i64, ptr, i32, ptr, ptr, double, double, double, ptr, ptr, ptr, double, double, i32, i32, i64, ptr, i32, ptr, i32, i32, [13 x double], ptr, ptr, ptr, i32, ptr, i32 }

@.str = private unnamed_addr constant [123 x i8] c"generated/home/dtcxzyw/WorkSpace/Projects/compilers/llvm-opt-benchmark/bench/sundials/sundials/src/cvodes/cvodes_nls_stg.c\00", align 1
@.str.1 = private unnamed_addr constant [26 x i8] c"cvode_mem = NULL illegal.\00", align 1
@__func__.cvNlsLSetupSensStg = private unnamed_addr constant [19 x i8] c"cvNlsLSetupSensStg\00", align 1

; Function Attrs: nounwind uwtable
define internal i32 @cvNlsLSetupSensStg(i32 noundef %0, ptr noundef %1, ptr noundef %2) #0 {
  %4 = alloca i32, align 4
  %5 = alloca i32, align 4
  %6 = alloca ptr, align 8
  %7 = alloca ptr, align 8
  %8 = alloca ptr, align 8
  %9 = alloca i32, align 4
  %10 = alloca i32, align 4
  store i32 %0, ptr %5, align 4, !tbaa !34
  store ptr %1, ptr %6, align 8, !tbaa !68
  store ptr %2, ptr %7, align 8, !tbaa !3
  call void @llvm.lifetime.start.p0(i64 8, ptr %8) #3
  call void @llvm.lifetime.start.p0(i64 4, ptr %9) #3
  %11 = load ptr, ptr %7, align 8, !tbaa !3
  %12 = icmp eq ptr %11, null
  br i1 %12, label %13, label %14

13:                                               ; preds = %3
  call void (ptr, i32, i32, ptr, ptr, ptr, ...) @cvProcessError(ptr noundef null, i32 noundef -21, i32 noundef 246, ptr noundef @__func__.cvNlsLSetupSensStg, ptr noundef @.str, ptr noundef @.str.1)
  store i32 -21, ptr %4, align 4
  store i32 1, ptr %10, align 4
  br label %83

14:                                               ; preds = %3
  %15 = load ptr, ptr %7, align 8, !tbaa !3
  store ptr %15, ptr %8, align 8, !tbaa !9
  %16 = load i32, ptr %5, align 4, !tbaa !34
  %17 = icmp ne i32 %16, 0
  br i1 %17, label %18, label %21

18:                                               ; preds = %14
  %19 = load ptr, ptr %8, align 8, !tbaa !9
  %20 = getelementptr inbounds nuw %struct.CVodeMemRec, ptr %19, i32 0, i32 176
  store i32 1, ptr %20, align 8, !tbaa !69
  br label %21

21:                                               ; preds = %18, %14
  %22 = load ptr, ptr %8, align 8, !tbaa !9
  %23 = getelementptr inbounds nuw %struct.CVodeMemRec, ptr %22, i32 0, i32 186
  %24 = load ptr, ptr %23, align 8, !tbaa !66
  %25 = load ptr, ptr %8, align 8, !tbaa !9
  %26 = load ptr, ptr %8, align 8, !tbaa !9
  %27 = getelementptr inbounds nuw %struct.CVodeMemRec, ptr %26, i32 0, i32 176
  %28 = load i32, ptr %27, align 8, !tbaa !69
  %29 = load ptr, ptr %8, align 8, !tbaa !9
  %30 = getelementptr inbounds nuw %struct.CVodeMemRec, ptr %29, i32 0, i32 53
  %31 = load ptr, ptr %30, align 8, !tbaa !53
  %32 = load ptr, ptr %8, align 8, !tbaa !9
  %33 = getelementptr inbounds nuw %struct.CVodeMemRec, ptr %32, i32 0, i32 56
  %34 = load ptr, ptr %33, align 8, !tbaa !54
  %35 = load ptr, ptr %8, align 8, !tbaa !9
  %36 = getelementptr inbounds nuw %struct.CVodeMemRec, ptr %35, i32 0, i32 198
  %37 = load ptr, ptr %8, align 8, !tbaa !9
  %38 = getelementptr inbounds nuw %struct.CVodeMemRec, ptr %37, i32 0, i32 57
  %39 = load ptr, ptr %38, align 8, !tbaa !56
  %40 = load ptr, ptr %8, align 8, !tbaa !9
  %41 = getelementptr inbounds nuw %struct.CVodeMemRec, ptr %40, i32 0, i32 58
  %42 = load ptr, ptr %41, align 8, !tbaa !57
  %43 = load ptr, ptr %8, align 8, !tbaa !9
  %44 = getelementptr inbounds nuw %struct.CVodeMemRec, ptr %43, i32 0, i32 59
  %45 = load ptr, ptr %44, align 8, !tbaa !70
  %46 = call i32 %24(ptr noundef %25, i32 noundef %28, ptr noundef %31, ptr noundef %34, ptr noundef %36, ptr noundef %39, ptr noundef %42, ptr noundef %45)
  store i32 %46, ptr %9, align 4, !tbaa !34
  %47 = load ptr, ptr %8, align 8, !tbaa !9
  %48 = getelementptr inbounds nuw %struct.CVodeMemRec, ptr %47, i32 0, i32 152
  %49 = load i64, ptr %48, align 8, !tbaa !71
  %50 = add nsw i64 %49, 1
  store i64 %50, ptr %48, align 8, !tbaa !71
  %51 = load ptr, ptr %8, align 8, !tbaa !9
  %52 = getelementptr inbounds nuw %struct.CVodeMemRec, ptr %51, i32 0, i32 153
  %53 = load i64, ptr %52, align 8, !tbaa !72
  %54 = add nsw i64 %53, 1
  store i64 %54, ptr %52, align 8, !tbaa !72
  %55 = load ptr, ptr %8, align 8, !tbaa !9
  %56 = getelementptr inbounds nuw %struct.CVodeMemRec, ptr %55, i32 0, i32 198
  %57 = load i32, ptr %56, align 8, !tbaa !73
  %58 = load ptr, ptr %6, align 8, !tbaa !68
  store i32 %57, ptr %58, align 4, !tbaa !34
  %59 = load ptr, ptr %8, align 8, !tbaa !9
  %60 = getelementptr inbounds nuw %struct.CVodeMemRec, ptr %59, i32 0, i32 101
  store double 1.000000e+00, ptr %60, align 8, !tbaa !74
  %61 = load ptr, ptr %8, align 8, !tbaa !9
  %62 = getelementptr inbounds nuw %struct.CVodeMemRec, ptr %61, i32 0, i32 99
  %63 = load double, ptr %62, align 8, !tbaa !60
  %64 = load ptr, ptr %8, align 8, !tbaa !9
  %65 = getelementptr inbounds nuw %struct.CVodeMemRec, ptr %64, i32 0, i32 100
  store double %63, ptr %65, align 8, !tbaa !75
  %66 = load ptr, ptr %8, align 8, !tbaa !9
  %67 = getelementptr inbounds nuw %struct.CVodeMemRec, ptr %66, i32 0, i32 102
  store double 1.000000e+00, ptr %67, align 8, !tbaa !76
  %68 = load ptr, ptr %8, align 8, !tbaa !9
  %69 = getelementptr inbounds nuw %struct.CVodeMemRec, ptr %68, i32 0, i32 103
  store double 1.000000e+00, ptr %69, align 8, !tbaa !62
  %70 = load ptr, ptr %8, align 8, !tbaa !9
  %71 = getelementptr inbounds nuw %struct.CVodeMemRec, ptr %70, i32 0, i32 132
  %72 = load i64, ptr %71, align 8, !tbaa !77
  %73 = load ptr, ptr %8, align 8, !tbaa !9
  %74 = getelementptr inbounds nuw %struct.CVodeMemRec, ptr %73, i32 0, i32 194
  store i64 %72, ptr %74, align 8, !tbaa !78
  %75 = load i32, ptr %9, align 4, !tbaa !34
  %76 = icmp slt i32 %75, 0
  br i1 %76, label %77, label %78

77:                                               ; preds = %21
  store i32 -6, ptr %4, align 4
  store i32 1, ptr %10, align 4
  br label %83

78:                                               ; preds = %21
  %79 = load i32, ptr %9, align 4, !tbaa !34
  %80 = icmp sgt i32 %79, 0
  br i1 %80, label %81, label %82

81:                                               ; preds = %78
  store i32 902, ptr %4, align 4
  store i32 1, ptr %10, align 4
  br label %83

82:                                               ; preds = %78
  store i32 0, ptr %4, align 4
  store i32 1, ptr %10, align 4
  br label %83

83:                                               ; preds = %82, %81, %77, %13
  call void @llvm.lifetime.end.p0(i64 4, ptr %9) #3
  call void @llvm.lifetime.end.p0(i64 8, ptr %8) #3
  %84 = load i32, ptr %4, align 4
  ret i32 %84
}